target datalayout = "e-m:e-p270:32:32-p271:32:32-p272:64:64-i64:64-i128:128-f80:128-n8:16:32:64-S128"
target triple = "x86_64-pc-linux-gnu"

@request = internal global ptr null, align 8
@default_null_provider = internal global ptr null, align 8
@provider = internal global ptr null, align 8
@libctx = internal global ptr null, align 8
@.str.14 = private unnamed_addr constant [34 x i8] c"../openssl/test/cmp_server_test.c\00", align 1
@.str.15 = private unnamed_addr constant [28 x i8] c"Error parsing test options\0A\00", align 1
@.str.16 = private unnamed_addr constant [33 x i8] c"request_f = test_get_argument(0)\00", align 1
@.str.17 = private unnamed_addr constant [26 x i8] c"usage: cmp_server_test %s\00", align 1
@.str.18 = private unnamed_addr constant [58 x i8] c"CR_protected_PBM_1234.der module_name [module_conf_file]\0A\00", align 1
@.str.19 = private unnamed_addr constant [41 x i8] c"request = load_pkimsg(request_f, libctx)\00", align 1
@.str.20 = private unnamed_addr constant [20 x i8] c"test_handle_request\00", align 1

; Function Attrs: nounwind uwtable
define dso_local void @cleanup_tests() #0 {
  %1 = load ptr, ptr @request, align 8, !tbaa !4
  call void @OSSL_CMP_MSG_free(ptr noundef %1)
  %2 = load ptr, ptr @default_null_provider, align 8, !tbaa !9
  %3 = call i32 @OSSL_PROVIDER_unload(ptr noundef %2)
  %4 = load ptr, ptr @provider, align 8, !tbaa !9
  %5 = call i32 @OSSL_PROVIDER_unload(ptr noundef %4)
  %6 = load ptr, ptr @libctx, align 8, !tbaa !11
  call void @OSSL_LIB_CTX_free(ptr noundef %6)
  ret void
}

; Function Attrs: nounwind uwtable
define dso_local i32 @setup_tests() #0 {
  %1 = alloca i32, align 4
  %2 = alloca ptr, align 8
  %3 = alloca i32, align 4
  call void @llvm.lifetime.start.p0(i64 8, ptr %2) #4
  %4 = call i32 @test_skip_common_options()
  %5 = icmp ne i32 %4, 0
  br i1 %5, label %7, label %6

6:                                                ; preds = %0
  call void (ptr, i32, ptr, ...) @test_error(ptr noundef @.str.14, i32 noundef 140, ptr noundef @.str.15)
  store i32 0, ptr %1, align 4
  store i32 1, ptr %3, align 4
  br label %24

7:                                                ; preds = %0
  %8 = call ptr @test_get_argument(i64 noundef 0)
  store ptr %8, ptr %2, align 8, !tbaa !13
  %9 = call i32 @test_ptr(ptr noundef @.str.14, i32 noundef 144, ptr noundef @.str.16, ptr noundef %8)
  %10 = icmp ne i32 %9, 0
  br i1 %10, label %12, label %11

11:                                               ; preds = %7
  call void (ptr, i32, ptr, ...) @test_error(ptr noundef @.str.14, i32 noundef 145, ptr noundef @.str.17, ptr noundef @.str.18)
  store i32 0, ptr %1, align 4
  store i32 1, ptr %3, align 4
  br label %24

12:                                               ; preds = %7
  %13 = call i32 @test_arg_libctx(ptr noundef @libctx, ptr noundef @default_null_provider, ptr noundef @provider, i32 noundef 1, ptr noundef @.str.18)
  %14 = icmp ne i32 %13, 0
  br i1 %14, label %16, label %15

15:                                               ; preds = %12
  store i32 0, ptr %1, align 4
  store i32 1, ptr %3, align 4
  br label %24

16:                                               ; preds = %12
  %17 = load ptr, ptr %2, align 8, !tbaa !13
  %18 = load ptr, ptr @libctx, align 8, !tbaa !11
  %19 = call ptr @load_pkimsg(ptr noundef %17, ptr noundef %18)
  store ptr %19, ptr @request, align 8, !tbaa !4
  %20 = call i32 @test_ptr(ptr noundef @.str.14, i32 noundef 152, ptr noundef @.str.19, ptr noundef %19)
  %21 = icmp ne i32 %20, 0
  br i1 %21, label %23, label %22

22:                                               ; preds = %16
  call void @cleanup_tests()
  store i32 0, ptr %1, align 4
  store i32 1, ptr %3, align 4
  br label %24

23:                                               ; preds = %16
  call void @add_test(ptr noundef @.str.20, ptr noundef @test_handle_request)
  store i32 1, ptr %1, align 4
  store i32 1, ptr %3, align 4
  br label %24

24:                                               ; preds = %23, %22, %15, %11, %6
  call void @llvm.lifetime.end.p0(i64 8, ptr %2) #4
  %25 = load i32, ptr %1, align 4
  ret i32 %25
}