; Function Attrs: nounwind uwtable
define dso_local range(i32 0, 2) i32 @setup_tests() local_unnamed_addr #0 {
  %1 = tail call i32 @test_skip_common_options() #4
  %.not = icmp eq i32 %1, 0
  br i1 %.not, label %2, label %3

2:                                                ; preds = %0
  tail call void (ptr, i32, ptr, ...) @test_error(ptr noundef nonnull @.str.14, i32 noundef 140, ptr noundef nonnull @.str.15) #4
  br label %21

3:                                                ; preds = %0
  %4 = tail call ptr @test_get_argument(i64 noundef 0) #4
  %5 = tail call i32 @test_ptr(ptr noundef nonnull @.str.14, i32 noundef 144, ptr noundef nonnull @.str.16, ptr noundef %4) #4
  %.not1 = icmp eq i32 %5, 0
  br i1 %.not1, label %6, label %7

6:                                                ; preds = %3
  tail call void (ptr, i32, ptr, ...) @test_error(ptr noundef nonnull @.str.14, i32 noundef 145, ptr noundef nonnull @.str.17, ptr noundef nonnull @.str.18) #4
  br label %21

7:                                                ; preds = %3
  %8 = tail call i32 @test_arg_libctx(ptr noundef nonnull @libctx, ptr noundef nonnull @default_null_provider, ptr noundef nonnull @provider, i32 noundef 1, ptr noundef nonnull @.str.18) #4
  %.not2 = icmp eq i32 %8, 0
  br i1 %.not2, label %21, label %9

9:                                                ; preds = %7
  %10 = load ptr, ptr @libctx, align 8, !tbaa !11
  %11 = tail call ptr @load_pkimsg(ptr noundef %4, ptr noundef %10) #4
  store ptr %11, ptr @request, align 8, !tbaa !4
  %12 = tail call i32 @test_ptr(ptr noundef nonnull @.str.14, i32 noundef 152, ptr noundef nonnull @.str.19, ptr noundef %11) #4
  %.not3 = icmp eq i32 %12, 0
  br i1 %.not3, label %13, label %20

13:                                               ; preds = %9
  %14 = load ptr, ptr @request, align 8, !tbaa !4
  tail call void @OSSL_CMP_MSG_free(ptr noundef %14) #4
  %15 = load ptr, ptr @default_null_provider, align 8, !tbaa !9
  %16 = tail call i32 @OSSL_PROVIDER_unload(ptr noundef %15) #4
  %17 = load ptr, ptr @provider, align 8, !tbaa !9
  %18 = tail call i32 @OSSL_PROVIDER_unload(ptr noundef %17) #4
  %19 = load ptr, ptr @libctx, align 8, !tbaa !11
  tail call void @OSSL_LIB_CTX_free(ptr noundef %19) #4
  br label %21

20:                                               ; preds = %9
  tail call void @add_test(ptr noundef nonnull @.str.20, ptr noundef nonnull @test_handle_request) #4
  br label %21

21:                                               ; preds = %7, %20, %13, %6, %2
  %.0 = phi i32 [ 1, %20 ], [ 0, %13 ], [ 0, %6 ], [ 0, %2 ], [ 0, %7 ]
  ret i32 %.0
}